; Function Attrs: mustprogress nounwind uwtable
define dso_local void @_ZN4llvm5Timer4initENS_9StringRefES1_RNS_10TimerGroupE(ptr noundef nonnull align 8 dereferenceable(176) %0, ptr %1, i64 %2, ptr %3, i64 %4, ptr noundef nonnull align 8 dereferenceable(112) %5) local_unnamed_addr #0 align 2 {
  %7 = getelementptr inbounds nuw i8, ptr %0, i64 80
  %8 = getelementptr inbounds i8, ptr %1, i64 %2
  %9 = tail call ptr @_ZNSt7__cxx1112basic_stringIcSt11char_traitsIcESaIcEE5beginEv(ptr noundef nonnull align 8 dereferenceable(32) %7) #19
  %10 = tail call ptr @_ZNSt7__cxx1112basic_stringIcSt11char_traitsIcESaIcEE3endEv(ptr noundef nonnull align 8 dereferenceable(32) %7) #19
  %11 = tail call noundef nonnull align 8 dereferenceable(32) ptr @_ZNSt7__cxx1112basic_stringIcSt11char_traitsIcESaIcEE7replaceEN9__gnu_cxx17__normal_iteratorIPKcS4_EES9_S8_S8_(ptr noundef nonnull align 8 dereferenceable(32) %7, ptr %9, ptr %10, ptr noundef %1, ptr noundef %8) #19
  %12 = getelementptr inbounds nuw i8, ptr %0, i64 112
  %13 = getelementptr inbounds i8, ptr %3, i64 %4
  %14 = tail call ptr @_ZNSt7__cxx1112basic_stringIcSt11char_traitsIcESaIcEE5beginEv(ptr noundef nonnull align 8 dereferenceable(32) %12) #19
  %15 = tail call ptr @_ZNSt7__cxx1112basic_stringIcSt11char_traitsIcESaIcEE3endEv(ptr noundef nonnull align 8 dereferenceable(32) %12) #19
  %16 = tail call noundef nonnull align 8 dereferenceable(32) ptr @_ZNSt7__cxx1112basic_stringIcSt11char_traitsIcESaIcEE7replaceEN9__gnu_cxx17__normal_iteratorIPKcS4_EES9_S8_S8_(ptr noundef nonnull align 8 dereferenceable(32) %12, ptr %14, ptr %15, ptr noundef %3, ptr noundef %13) #19
  %17 = getelementptr inbounds nuw i8, ptr %0, i64 145
  store i8 0, ptr %17, align 1
  %18 = getelementptr inbounds nuw i8, ptr %0, i64 144
  store i8 0, ptr %18, align 8
  %19 = getelementptr inbounds nuw i8, ptr %0, i64 152
  store ptr %5, ptr %19, align 8
  %20 = load atomic i64, ptr @_ZL9TimerLock acquire, align 8
  %.not.i.i = icmp eq i64 %20, 0
  br i1 %.not.i.i, label %21, label %_ZN4llvm13ManagedStaticINS_3sys10SmartMutexILb1EEENS_14object_creatorIS3_EENS_14object_deleterIS3_EEEdeEv.exit.i

21:                                               ; preds = %6
  tail call void @_ZNK4llvm17ManagedStaticBase21RegisterManagedStaticEPFPvvEPFvS1_E(ptr noundef nonnull align 8 dereferenceable(24) @_ZL9TimerLock, ptr noundef nonnull @_ZN4llvm14object_creatorINS_3sys10SmartMutexILb1EEEE4callEv, ptr noundef nonnull @_ZN4llvm14object_deleterINS_3sys10SmartMutexILb1EEEE4callEPv) #19
  br label %_ZN4llvm13ManagedStaticINS_3sys10SmartMutexILb1EEENS_14object_creatorIS3_EENS_14object_deleterIS3_EEEdeEv.exit.i

_ZN4llvm13ManagedStaticINS_3sys10SmartMutexILb1EEENS_14object_creatorIS3_EENS_14object_deleterIS3_EEEdeEv.exit.i: ; preds = %21, %6
  %22 = load atomic i64, ptr @_ZL9TimerLock monotonic, align 8
  %.0.i2.i.i = inttoptr i64 %22 to ptr
  %23 = tail call noundef i32 @pthread_mutex_lock(ptr noundef nonnull %.0.i2.i.i) #19
  %.not.i.i.i.i = icmp eq i32 %23, 0
  br i1 %.not.i.i.i.i, label %_ZNSt10lock_guardIN4llvm3sys10SmartMutexILb1EEEEC2ERS3_.exit.i, label %24

24:                                               ; preds = %_ZN4llvm13ManagedStaticINS_3sys10SmartMutexILb1EEENS_14object_creatorIS3_EENS_14object_deleterIS3_EEEdeEv.exit.i
  tail call void @_ZSt20__throw_system_errori(i32 noundef %23) #22
  unreachable

_ZNSt10lock_guardIN4llvm3sys10SmartMutexILb1EEEEC2ERS3_.exit.i: ; preds = %_ZN4llvm13ManagedStaticINS_3sys10SmartMutexILb1EEENS_14object_creatorIS3_EENS_14object_deleterIS3_EEEdeEv.exit.i
  %25 = getelementptr inbounds nuw i8, ptr %5, i64 64
  %26 = load ptr, ptr %25, align 8
  %.not.i = icmp eq ptr %26, null
  br i1 %.not.i, label %_ZN4llvm10TimerGroup8addTimerERNS_5TimerE.exit, label %27

27:                                               ; preds = %_ZNSt10lock_guardIN4llvm3sys10SmartMutexILb1EEEEC2ERS3_.exit.i
  %28 = getelementptr inbounds nuw i8, ptr %0, i64 168
  %29 = getelementptr inbounds nuw i8, ptr %26, i64 160
  store ptr %28, ptr %29, align 8
  %.pre.i = load ptr, ptr %25, align 8
  br label %_ZN4llvm10TimerGroup8addTimerERNS_5TimerE.exit

_ZN4llvm10TimerGroup8addTimerERNS_5TimerE.exit:   ; preds = %_ZNSt10lock_guardIN4llvm3sys10SmartMutexILb1EEEEC2ERS3_.exit.i, %27
  %30 = phi ptr [ %.pre.i, %27 ], [ null, %_ZNSt10lock_guardIN4llvm3sys10SmartMutexILb1EEEEC2ERS3_.exit.i ]
  %31 = getelementptr inbounds nuw i8, ptr %0, i64 168
  store ptr %30, ptr %31, align 8
  %32 = getelementptr inbounds nuw i8, ptr %0, i64 160
  store ptr %25, ptr %32, align 8
  store ptr %0, ptr %25, align 8
  %33 = tail call noundef i32 @pthread_mutex_unlock(ptr noundef nonnull %.0.i2.i.i) #19
  ret void
}